; Function Attrs: mustprogress uwtable
define hidden noundef ptr @_Z18mk_smt_tactic_coreR11ast_managerRK10params_refRK6symbol(ptr noundef nonnull align 8 dereferenceable(976) %0, ptr noundef nonnull align 8 dereferenceable(8) %1, ptr noundef nonnull align 8 dereferenceable(8) %2) local_unnamed_addr #3 personality ptr @__gxx_personality_v0 {
  %4 = alloca %struct.parallel_params, align 8
  call void @llvm.lifetime.start.p0(i64 16, ptr nonnull %4) #20
  store ptr %1, ptr %4, align 8, !tbaa !3
  %5 = getelementptr inbounds nuw i8, ptr %4, i64 8
  call void @_ZN7gparams10get_moduleEPKc(ptr dead_on_unwind nonnull writable sret(%class.params_ref) align 8 %5, ptr noundef nonnull @.str.1)
  %6 = load ptr, ptr %4, align 8, !tbaa !8
  %7 = invoke noundef zeroext i1 @_ZNK10params_ref8get_boolEPKcRKS_b(ptr noundef nonnull align 8 dereferenceable(8) %6, ptr noundef nonnull @.str.2, ptr noundef nonnull align 8 dereferenceable(8) %5, i1 noundef zeroext false)
          to label %_ZNK15parallel_params6enableEv.exit unwind label %15

_ZNK15parallel_params6enableEv.exit:              ; preds = %3
  br i1 %7, label %8, label %12

8:                                                ; preds = %_ZNK15parallel_params6enableEv.exit
  %9 = invoke noundef ptr @_Z13mk_smt_solverR11ast_managerRK10params_refRK6symbol(ptr noundef nonnull align 8 dereferenceable(976) %0, ptr noundef nonnull align 8 dereferenceable(8) %1, ptr noundef nonnull align 8 dereferenceable(8) %2)
          to label %10 unwind label %15

10:                                               ; preds = %8
  %11 = invoke noundef ptr @_Z18mk_parallel_tacticP6solverRK10params_ref(ptr noundef %9, ptr noundef nonnull align 8 dereferenceable(8) %1)
          to label %_ZL17mk_seq_smt_tacticR11ast_managerRK10params_ref.exit unwind label %15

12:                                               ; preds = %_ZNK15parallel_params6enableEv.exit
  %13 = invoke noalias noundef ptr @_ZN6memory8allocateEm(i64 noundef 1248)
          to label %.noexc unwind label %15

.noexc:                                           ; preds = %12
  invoke void @_ZN10smt_tacticC2ER11ast_managerRK10params_ref(ptr noundef nonnull align 8 dereferenceable(1248) %13, ptr noundef nonnull align 8 dereferenceable(976) %0, ptr noundef nonnull align 8 dereferenceable(8) %1)
          to label %_ZL17mk_seq_smt_tacticR11ast_managerRK10params_ref.exit unwind label %15

_ZL17mk_seq_smt_tacticR11ast_managerRK10params_ref.exit: ; preds = %.noexc, %10
  %14 = phi ptr [ %11, %10 ], [ %13, %.noexc ]
  call void @_ZN10params_refD1Ev(ptr noundef nonnull align 8 dereferenceable(8) %5) #20
  call void @llvm.lifetime.end.p0(i64 16, ptr nonnull %4) #20
  ret ptr %14

15:                                               ; preds = %.noexc, %12, %3, %10, %8
  %16 = landingpad { ptr, i32 }
          cleanup
  call void @_ZN10params_refD1Ev(ptr noundef nonnull align 8 dereferenceable(8) %5) #20
  call void @llvm.lifetime.end.p0(i64 16, ptr nonnull %4) #20
  resume { ptr, i32 } %16
}